; Function Attrs: uwtable
define void @_ZThn16_NK15FilterCreateIso10filterInfoEi(ptr dead_on_unwind noalias writable sret(%class.QString) align 8 %0, ptr nocapture noundef readnone %1, i32 noundef %2) unnamed_addr #13 align 2 {
  tail call void @llvm.experimental.noalias.scope.decl(metadata !23)
  %cond.i = icmp eq i32 %2, 0
  br i1 %cond.i, label %4, label %5

4:                                                ; preds = %3
  tail call void @_ZNK11QMetaObject2trEPKcS1_i(ptr dead_on_unwind writable sret(%class.QString) align 8 %0, ptr noundef nonnull align 8 dereferenceable(48) @_ZN15FilterCreateIso16staticMetaObjectE, ptr noundef nonnull @.str.10, ptr noundef null, i32 noundef -1)
  br label %_ZNK15FilterCreateIso10filterInfoEi.exit

5:                                                ; preds = %3
  %6 = tail call noundef ptr @_ZN7QString16fromAscii_helperEPKci(ptr noundef nonnull @.str.11, i32 noundef 6), !noalias !23
  store ptr %6, ptr %0, align 8, !alias.scope !23
  br label %_ZNK15FilterCreateIso10filterInfoEi.exit

_ZNK15FilterCreateIso10filterInfoEi.exit:         ; preds = %4, %5
  ret void
}